(dp1
S'failed'
p2
(lp3
S'1'
aS'2'
aS'3'
aS'4'
aS'5'
asS'source_names'
p4
(lp5
S'/home/rossie/Documents/bucket_list/app/models/tests/user_tests.py'
p6
aS'app/models/tests/user_tests.py'
p7
asS'ids'
p8
(dp9
I1
(S'/home/rossie/Documents/bucket_list/app/models/tests/user_tests.py'
S'app.models.tests.user_tests'
Ntp10
sI2
(S'/home/rossie/Documents/bucket_list/app/models/tests/user_tests.py'
S'app.models.tests.user_tests'
p11
S'test_user_existence'
p12
tp13
sI3
(S'/home/rossie/Documents/bucket_list/app/models/tests/user_tests.py'
g11
S'test_register_user'
p14
tp15
sI4
(S'/home/rossie/Documents/bucket_list/app/models/tests/user_tests.py'
g11
S'test_create_bucketlist'
p16
tp17
sI5
(S'/home/rossie/Documents/bucket_list/app/models/tests/user_tests.py'
g11
S'test_create_bucket_item'
p18
tp19
ss.