(dp1
S'failed'
p2
(lp3
S'1'
asS'source_names'
p4
(lp5
S'/home/rossie/Documents/bucket_list/app/models/tests/user_tests.py'
p6
asS'ids'
p7
(dp8
I1
(S'/home/rossie/Documents/bucket_list/app/models/tests/user_tests.py'
S'app.models.tests.user_tests'
Ntp9
ss.