(dp1
S'failed'
p2
(lp3
S'1'
aS'2'
aS'3'
aS'4'
aS'5'
aS'6'
aS'7'
aS'8'
aS'11'
p4
aS'15'
p5
asS'source_names'
p6
(lp7
S'/home/rossie/Documents/bucket_list/app/models/tests/user_tests.py'
p8
aS'app/models/tests/user_tests.py'
p9
aS'/home/rossie/Documents/bucket_list/app/models/tests/bucketlist_tests.py'
p10
aS'app/models/tests/user_tests.py:Testuser.test_create_bucket_item'
p11
aS'.'
aS'/home/rossie/Documents/bucketlist/view_tests.py'
p12
asS'ids'
p13
(dp14
I1
(S'/home/rossie/Documents/bucket_list/app/models/tests/user_tests.py'
S'app.models.tests.user_tests'
Ntp15
sI2
(S'/home/rossie/Documents/bucket_list/app/models/tests/user_tests.py'
S'app.models.tests.user_tests'
p16
S'test_user_existence'
tp17
sI3
(S'/home/rossie/Documents/bucket_list/app/models/tests/user_tests.py'
g16
S'test_register_user'
tp18
sI4
(S'/home/rossie/Documents/bucket_list/app/models/tests/user_tests.py'
g16
S'test_create_bucketlist'
tp19
sI5
(S'/home/rossie/Documents/bucket_list/app/models/tests/user_tests.py'
g16
S'test_create_bucket_item'
tp20
sI6
(S'/home/rossie/Documents/bucket_list/app/models/tests/bucketlist_tests.py'
S'app.models.tests.bucketlist_tests'
S'test_create_item'
tp21
sI7
(S'/home/rossie/Documents/bucket_list/app/models/tests/user_tests.py'
S'app.models.tests.user_tests'
S'Testuser.test_create_bucket_item'
tp22
sI8
(S'/home/rossie/Documents/bucket_list/app'
S'app'
Ntp23
sI9
(S'/home/rossie/Documents/bucket_list/app/models/tests/bucketlist_tests.py'
S'app.models.tests.bucketlist_tests'
S'Testbucketlist.test_create_item'
tp24
sI10
(S'/home/rossie/Documents/bucket_list/app/models/tests/user_tests.py'
S'app.models.tests.user_tests'
p25
S'Testuser.test_create_bucketlist'
tp26
sI11
(S'/home/rossie/Documents/bucket_list/app/models/tests/user_tests.py'
g25
S'Testuser.test_del_bucketlist'
tp27
sI12
(S'/home/rossie/Documents/bucket_list/app/models/tests/user_tests.py'
g25
S'Testuser.test_get_username'
tp28
sI13
(S'/home/rossie/Documents/bucket_list/app/models/tests/user_tests.py'
g25
S'Testuser.test_register_user'
tp29
sI14
(S'/home/rossie/Documents/bucket_list/app/models/tests/user_tests.py'
g25
S'Testuser.test_user_existence'
tp30
sI15
(S'/home/rossie/Documents/bucketlist/view_tests.py'
p31
S'view_tests'
p32
Ntp33
ss.