(dp1
S'failed'
p2
(lp3
S'1'
aS'2'
aS'3'
aS'4'
aS'5'
aS'6'
aS'7'
asS'source_names'
p4
(lp5
S'/home/rossie/Documents/bucket_list/app/models/tests/user_tests.py'
p6
aS'app/models/tests/user_tests.py'
p7
aS'/home/rossie/Documents/bucket_list/app/models/tests/bucketlist_tests.py'
p8
aS'app/models/tests/user_tests.py:Testuser.test_create_bucket_item'
p9
asS'ids'
p10
(dp11
I1
(S'/home/rossie/Documents/bucket_list/app/models/tests/user_tests.py'
S'app.models.tests.user_tests'
Ntp12
sI2
(S'/home/rossie/Documents/bucket_list/app/models/tests/user_tests.py'
S'app.models.tests.user_tests'
p13
S'test_user_existence'
tp14
sI3
(S'/home/rossie/Documents/bucket_list/app/models/tests/user_tests.py'
g13
S'test_register_user'
tp15
sI4
(S'/home/rossie/Documents/bucket_list/app/models/tests/user_tests.py'
g13
S'test_create_bucketlist'
tp16
sI5
(S'/home/rossie/Documents/bucket_list/app/models/tests/user_tests.py'
g13
S'test_create_bucket_item'
tp17
sI6
(S'/home/rossie/Documents/bucket_list/app/models/tests/bucketlist_tests.py'
S'app.models.tests.bucketlist_tests'
S'test_create_item'
tp18
sI7
(S'/home/rossie/Documents/bucket_list/app/models/tests/user_tests.py'
S'app.models.tests.user_tests'
p19
S'Testuser.test_create_bucket_item'
tp20
ss.