(dp1
S'failed'
p2
(lp3
S'1'
aS'2'
aS'3'
aS'4'
aS'5'
aS'6'
asS'source_names'
p4
(lp5
S'/home/rossie/Documents/bucket_list/app/models/tests/user_tests.py'
p6
aS'app/models/tests/user_tests.py'
p7
aS'/home/rossie/Documents/bucket_list/app/models/tests/bucketlist_tests.py'
p8
asS'ids'
p9
(dp10
I1
(S'/home/rossie/Documents/bucket_list/app/models/tests/user_tests.py'
S'app.models.tests.user_tests'
Ntp11
sI2
(S'/home/rossie/Documents/bucket_list/app/models/tests/user_tests.py'
S'app.models.tests.user_tests'
p12
S'test_user_existence'
tp13
sI3
(S'/home/rossie/Documents/bucket_list/app/models/tests/user_tests.py'
g12
S'test_register_user'
tp14
sI4
(S'/home/rossie/Documents/bucket_list/app/models/tests/user_tests.py'
g12
S'test_create_bucketlist'
tp15
sI5
(S'/home/rossie/Documents/bucket_list/app/models/tests/user_tests.py'
g12
S'test_create_bucket_item'
tp16
sI6
(S'/home/rossie/Documents/bucket_list/app/models/tests/bucketlist_tests.py'
S'app.models.tests.bucketlist_tests'
p17
S'test_create_item'
p18
tp19
ss.